; Function Attrs: nounwind uwtable
define internal fastcc void @_jumbleCompositeTypeStmt(ptr noundef %0, ptr noundef nonnull readonly captures(none) %1) unnamed_addr #0 {
  %3 = getelementptr inbounds nuw i8, ptr %1, i64 8
  %4 = load ptr, ptr %3, align 8
  tail call fastcc void @_jumbleNode(ptr noundef %0, ptr noundef %4)
  %5 = getelementptr inbounds nuw i8, ptr %1, i64 16
  %6 = load ptr, ptr %5, align 8
  tail call fastcc void @_jumbleNode(ptr noundef %0, ptr noundef %6)
  ret void
}